; Function Attrs: nounwind sspstrong uwtable
define internal ptr @esp_load_request(ptr readnone captures(none) %f, ptr noundef %req) #0 {
entry:
  %0 = load ptr, ptr %req, align 8
  %add.ptr = getelementptr i8, ptr %0, i64 -248
  %call = tail call ptr @scsi_req_ref(ptr noundef nonnull %req) #10
  %current_req = getelementptr i8, ptr %0, i64 152
  store ptr %req, ptr %current_req, align 8
  ret ptr %add.ptr
}